target datalayout = "e-m:e-p270:32:32-p271:32:32-p272:64:64-i64:64-i128:128-f80:128-n8:16:32:64-S128"
target triple = "x86_64-pc-linux-gnu"

%struct._zval_struct = type { %union._zend_value, %union.anon, %union.anon.2 }
%union._zend_value = type { i64 }
%union.anon = type { i32 }
%union.anon.2 = type { i32 }
%struct._zend_array = type { %struct._zend_refcounted_h, %union.anon.4, i32, %union.anon.6, i32, i32, i32, i32, i64, ptr }
%struct._zend_refcounted_h = type { i32, %union.anon.3 }
%union.anon.3 = type { i32 }
%union.anon.4 = type { i32 }
%union.anon.6 = type { ptr }
%struct._zend_execute_data = type { ptr, ptr, ptr, ptr, %struct._zval_struct, ptr, ptr, ptr, ptr }
%struct._zend_reference = type { %struct._zend_refcounted_h, %struct._zval_struct, %union.zend_property_info_source_list }
%union.zend_property_info_source_list = type { ptr }
%struct.anon.0 = type { i8, i8, %union.anon.1 }
%union.anon.1 = type { i16 }

; Function Attrs: alwaysinline nounwind uwtable
define internal void @zend_array_sort(ptr noundef %0, ptr noundef %1, i1 noundef zeroext %2) #5 {
  %4 = alloca ptr, align 8
  %5 = alloca ptr, align 8
  %6 = alloca i8, align 1
  store ptr %0, ptr %4, align 8, !tbaa !24
  store ptr %1, ptr %5, align 8, !tbaa !26
  %7 = zext i1 %2 to i8
  store i8 %7, ptr %6, align 1, !tbaa !20
  %8 = load ptr, ptr %4, align 8, !tbaa !24
  %9 = load ptr, ptr %5, align 8, !tbaa !26
  %10 = load i8, ptr %6, align 1, !tbaa !20, !range !22, !noundef !23
  %11 = trunc i8 %10 to i1
  call void @zend_array_sort_ex(ptr noundef %8, ptr noundef @zend_sort, ptr noundef %9, i1 noundef zeroext %11)
  ret void
}

; Function Attrs: alwaysinline nounwind uwtable
define internal zeroext i1 @zend_parse_arg_array(ptr noundef %0, ptr noundef %1, i1 noundef zeroext %2, i1 noundef zeroext %3) #5 {
  %5 = alloca i1, align 1
  %6 = alloca ptr, align 8
  %7 = alloca ptr, align 8
  %8 = alloca i8, align 1
  %9 = alloca i8, align 1
  store ptr %0, ptr %6, align 8, !tbaa !13
  store ptr %1, ptr %7, align 8, !tbaa !31
  %10 = zext i1 %2 to i8
  store i8 %10, ptr %8, align 1, !tbaa !20
  %11 = zext i1 %3 to i8
  store i8 %11, ptr %9, align 1, !tbaa !20
  %12 = load ptr, ptr %6, align 8, !tbaa !13
  %13 = call zeroext i8 @zval_get_type(ptr noundef %12)
  %14 = zext i8 %13 to i32
  %15 = icmp eq i32 %14, 7
  %16 = xor i1 %15, true
  %17 = xor i1 %16, true
  %18 = zext i1 %17 to i32
  %19 = sext i32 %18 to i64
  %20 = call i64 @llvm.expect.i64(i64 %19, i64 1)
  %21 = icmp ne i64 %20, 0
  br i1 %21, label %36, label %22

22:                                               ; preds = %4
  %23 = load i8, ptr %9, align 1, !tbaa !20, !range !22, !noundef !23
  %24 = trunc i8 %23 to i1
  br i1 %24, label %25, label %39

25:                                               ; preds = %22
  %26 = load ptr, ptr %6, align 8, !tbaa !13
  %27 = call zeroext i8 @zval_get_type(ptr noundef %26)
  %28 = zext i8 %27 to i32
  %29 = icmp eq i32 %28, 8
  %30 = xor i1 %29, true
  %31 = xor i1 %30, true
  %32 = zext i1 %31 to i32
  %33 = sext i32 %32 to i64
  %34 = call i64 @llvm.expect.i64(i64 %33, i64 1)
  %35 = icmp ne i64 %34, 0
  br i1 %35, label %36, label %39

36:                                               ; preds = %25, %4
  %37 = load ptr, ptr %6, align 8, !tbaa !13
  %38 = load ptr, ptr %7, align 8, !tbaa !31
  store ptr %37, ptr %38, align 8, !tbaa !13
  br label %57

39:                                               ; preds = %25, %22
  %40 = load i8, ptr %8, align 1, !tbaa !20, !range !22, !noundef !23
  %41 = trunc i8 %40 to i1
  br i1 %41, label %42, label %55

42:                                               ; preds = %39
  %43 = load ptr, ptr %6, align 8, !tbaa !13
  %44 = call zeroext i8 @zval_get_type(ptr noundef %43)
  %45 = zext i8 %44 to i32
  %46 = icmp eq i32 %45, 1
  %47 = xor i1 %46, true
  %48 = xor i1 %47, true
  %49 = zext i1 %48 to i32
  %50 = sext i32 %49 to i64
  %51 = call i64 @llvm.expect.i64(i64 %50, i64 1)
  %52 = icmp ne i64 %51, 0
  br i1 %52, label %53, label %55

53:                                               ; preds = %42
  %54 = load ptr, ptr %7, align 8, !tbaa !31
  store ptr null, ptr %54, align 8, !tbaa !13
  br label %56

55:                                               ; preds = %42, %39
  store i1 false, ptr %5, align 1
  br label %58

56:                                               ; preds = %53
  br label %57

57:                                               ; preds = %56, %36
  store i1 true, ptr %5, align 1
  br label %58

58:                                               ; preds = %57, %55
  %59 = load i1, ptr %5, align 1
  ret i1 %59
}

; Function Attrs: alwaysinline nounwind uwtable
define internal void @zend_gc_try_delref(ptr noundef %0) #5 {
  %2 = alloca ptr, align 8
  store ptr %0, ptr %2, align 8, !tbaa !27
  %3 = load ptr, ptr %2, align 8, !tbaa !27
  %4 = getelementptr inbounds nuw %struct._zend_refcounted_h, ptr %3, i32 0, i32 1
  %5 = load i32, ptr %4, align 4, !tbaa !17
  %6 = and i32 %5, 64
  %7 = icmp ne i32 %6, 0
  br i1 %7, label %15, label %8

8:                                                ; preds = %1
  br label %9

9:                                                ; preds = %8
  br label %10

10:                                               ; preds = %9
  %11 = load ptr, ptr %2, align 8, !tbaa !27
  %12 = getelementptr inbounds nuw %struct._zend_refcounted_h, ptr %11, i32 0, i32 0
  %13 = load i32, ptr %12, align 4, !tbaa !29
  %14 = add i32 %13, -1
  store i32 %14, ptr %12, align 4, !tbaa !29
  br label %15

15:                                               ; preds = %10, %1
  ret void
}

; Function Attrs: alwaysinline nounwind uwtable
define internal i32 @zend_gc_refcount(ptr noundef %0) #5 {
  %2 = alloca ptr, align 8
  store ptr %0, ptr %2, align 8, !tbaa !27
  %3 = load ptr, ptr %2, align 8, !tbaa !27
  %4 = getelementptr inbounds nuw %struct._zend_refcounted_h, ptr %3, i32 0, i32 0
  %5 = load i32, ptr %4, align 4, !tbaa !29
  ret i32 %5
}

; Function Attrs: alwaysinline nounwind uwtable
define internal zeroext i8 @zval_get_type(ptr noundef %0) #5 {
  %2 = alloca ptr, align 8
  store ptr %0, ptr %2, align 8, !tbaa !13
  %3 = load ptr, ptr %2, align 8, !tbaa !13
  %4 = getelementptr inbounds nuw %struct._zval_struct, ptr %3, i32 0, i32 1
  %5 = getelementptr inbounds nuw %struct.anon.0, ptr %4, i32 0, i32 0
  %6 = load i8, ptr %5, align 8, !tbaa !17
  ret i8 %6
}

; Function Attrs: nounwind uwtable
define internal void @php_natsort(ptr noundef %0, ptr noundef %1, i32 noundef %2) #0 {
  %4 = alloca ptr, align 8
  %5 = alloca ptr, align 8
  %6 = alloca i32, align 4
  %7 = alloca ptr, align 8
  %8 = alloca i32, align 4
  %9 = alloca i32, align 4
  %10 = alloca i32, align 4
  %11 = alloca i32, align 4
  %12 = alloca i32, align 4
  %13 = alloca ptr, align 8
  %14 = alloca ptr, align 8
  %15 = alloca i32, align 4
  %16 = alloca ptr, align 8
  %17 = alloca i8, align 1
  %18 = alloca i8, align 1
  %19 = alloca i32, align 4
  %20 = alloca ptr, align 8
  %21 = alloca ptr, align 8
  %22 = alloca ptr, align 8
  %23 = alloca ptr, align 8
  %24 = alloca ptr, align 8
  %25 = alloca i32, align 4
  store ptr %0, ptr %4, align 8, !tbaa !11
  store ptr %1, ptr %5, align 8, !tbaa !13
  store i32 %2, ptr %6, align 4, !tbaa !4
  call void @llvm.lifetime.start.p0(i64 8, ptr %7) #17
  br label %26

26:                                               ; preds = %3
  call void @llvm.lifetime.start.p0(i64 4, ptr %8) #17
  store i32 0, ptr %8, align 4, !tbaa !4
  call void @llvm.lifetime.start.p0(i64 4, ptr %9) #17
  store i32 1, ptr %9, align 4, !tbaa !4
  call void @llvm.lifetime.start.p0(i64 4, ptr %10) #17
  store i32 1, ptr %10, align 4, !tbaa !4
  call void @llvm.lifetime.start.p0(i64 4, ptr %11) #17
  %27 = load ptr, ptr %4, align 8, !tbaa !11
  %28 = getelementptr inbounds nuw %struct._zend_execute_data, ptr %27, i32 0, i32 4
  %29 = getelementptr inbounds nuw %struct._zval_struct, ptr %28, i32 0, i32 2
  %30 = load i32, ptr %29, align 4, !tbaa !17
  store i32 %30, ptr %11, align 4, !tbaa !4
  call void @llvm.lifetime.start.p0(i64 4, ptr %12) #17
  store i32 0, ptr %12, align 4, !tbaa !4
  call void @llvm.lifetime.start.p0(i64 8, ptr %13) #17
  call void @llvm.lifetime.start.p0(i64 8, ptr %14) #17
  store ptr null, ptr %14, align 8, !tbaa !13
  call void @llvm.lifetime.start.p0(i64 4, ptr %15) #17
  store i32 0, ptr %15, align 4, !tbaa !4
  call void @llvm.lifetime.start.p0(i64 8, ptr %16) #17
  store ptr null, ptr %16, align 8, !tbaa !18
  call void @llvm.lifetime.start.p0(i64 1, ptr %17) #17
  store i8 0, ptr %17, align 1, !tbaa !20
  call void @llvm.lifetime.start.p0(i64 1, ptr %18) #17
  store i8 0, ptr %18, align 1, !tbaa !20
  call void @llvm.lifetime.start.p0(i64 4, ptr %19) #17
  store i32 0, ptr %19, align 4, !tbaa !4
  br label %31

31:                                               ; preds = %26
  %32 = load i32, ptr %11, align 4, !tbaa !4
  %33 = load i32, ptr %9, align 4, !tbaa !4
  %34 = icmp ult i32 %32, %33
  %35 = xor i1 %34, true
  %36 = xor i1 %35, true
  %37 = zext i1 %36 to i32
  %38 = sext i32 %37 to i64
  %39 = call i64 @llvm.expect.i64(i64 %38, i64 0)
  %40 = icmp ne i64 %39, 0
  br i1 %40, label %51, label %41

41:                                               ; preds = %31
  %42 = load i32, ptr %11, align 4, !tbaa !4
  %43 = load i32, ptr %10, align 4, !tbaa !4
  %44 = icmp ugt i32 %42, %43
  %45 = xor i1 %44, true
  %46 = xor i1 %45, true
  %47 = zext i1 %46 to i32
  %48 = sext i32 %47 to i64
  %49 = call i64 @llvm.expect.i64(i64 %48, i64 0)
  %50 = icmp ne i64 %49, 0
  br i1 %50, label %51, label %54

51:                                               ; preds = %41, %31
  %52 = load i32, ptr %9, align 4, !tbaa !4
  %53 = load i32, ptr %10, align 4, !tbaa !4
  call void @zend_wrong_parameters_count_error(i32 noundef %52, i32 noundef %53)
  store i32 1, ptr %19, align 4, !tbaa !4
  br label %175

54:                                               ; preds = %41
  %55 = load ptr, ptr %4, align 8, !tbaa !11
  %56 = getelementptr inbounds %struct._zval_struct, ptr %55, i64 4
  store ptr %56, ptr %13, align 8, !tbaa !13
  %57 = load i32, ptr %12, align 4, !tbaa !4
  %58 = add i32 %57, 1
  store i32 %58, ptr %12, align 4, !tbaa !4
  %59 = load i32, ptr %12, align 4, !tbaa !4
  %60 = load i32, ptr %9, align 4, !tbaa !4
  %61 = icmp ule i32 %59, %60
  br i1 %61, label %67, label %62

62:                                               ; preds = %54
  %63 = load i8, ptr %18, align 1, !tbaa !20, !range !22, !noundef !23
  %64 = trunc i8 %63 to i1
  %65 = zext i1 %64 to i32
  %66 = icmp eq i32 %65, 1
  br label %67

67:                                               ; preds = %62, %54
  %68 = phi i1 [ true, %54 ], [ %66, %62 ]
  call void @llvm.assume(i1 %68)
  %69 = load i32, ptr %12, align 4, !tbaa !4
  %70 = load i32, ptr %9, align 4, !tbaa !4
  %71 = icmp ugt i32 %69, %70
  br i1 %71, label %77, label %72

72:                                               ; preds = %67
  %73 = load i8, ptr %18, align 1, !tbaa !20, !range !22, !noundef !23
  %74 = trunc i8 %73 to i1
  %75 = zext i1 %74 to i32
  %76 = icmp eq i32 %75, 0
  br label %77

77:                                               ; preds = %72, %67
  %78 = phi i1 [ true, %67 ], [ %76, %72 ]
  call void @llvm.assume(i1 %78)
  %79 = load i8, ptr %18, align 1, !tbaa !20, !range !22, !noundef !23
  %80 = trunc i8 %79 to i1
  br i1 %80, label %81, label %93

81:                                               ; preds = %77
  %82 = load i32, ptr %12, align 4, !tbaa !4
  %83 = load i32, ptr %11, align 4, !tbaa !4
  %84 = icmp ugt i32 %82, %83
  %85 = xor i1 %84, true
  %86 = xor i1 %85, true
  %87 = zext i1 %86 to i32
  %88 = sext i32 %87 to i64
  %89 = call i64 @llvm.expect.i64(i64 %88, i64 0)
  %90 = icmp ne i64 %89, 0
  br i1 %90, label %91, label %92

91:                                               ; preds = %81
  br label %175

92:                                               ; preds = %81
  br label %93

93:                                               ; preds = %92, %77
  %94 = load ptr, ptr %13, align 8, !tbaa !13
  %95 = getelementptr inbounds nuw %struct._zval_struct, ptr %94, i32 1
  store ptr %95, ptr %13, align 8, !tbaa !13
  %96 = load ptr, ptr %13, align 8, !tbaa !13
  store ptr %96, ptr %14, align 8, !tbaa !13
  %97 = load ptr, ptr %14, align 8, !tbaa !13
  %98 = call zeroext i8 @zval_get_type(ptr noundef %97)
  %99 = zext i8 %98 to i32
  %100 = icmp eq i32 %99, 10
  %101 = xor i1 %100, true
  %102 = xor i1 %101, true
  %103 = zext i1 %102 to i32
  %104 = sext i32 %103 to i64
  %105 = call i64 @llvm.expect.i64(i64 %104, i64 1)
  %106 = icmp ne i64 %105, 0
  br i1 %106, label %107, label %112

107:                                              ; preds = %93
  %108 = load ptr, ptr %14, align 8, !tbaa !13
  %109 = getelementptr inbounds nuw %struct._zval_struct, ptr %108, i32 0, i32 0
  %110 = load ptr, ptr %109, align 8, !tbaa !17
  %111 = getelementptr inbounds nuw %struct._zend_reference, ptr %110, i32 0, i32 1
  store ptr %111, ptr %14, align 8, !tbaa !13
  br label %112

112:                                              ; preds = %107, %93
  br label %113

113:                                              ; preds = %112
  call void @llvm.lifetime.start.p0(i64 8, ptr %20) #17
  %114 = load ptr, ptr %14, align 8, !tbaa !13
  store ptr %114, ptr %20, align 8, !tbaa !13
  %115 = load ptr, ptr %20, align 8, !tbaa !13
  %116 = call zeroext i8 @zval_get_type(ptr noundef %115)
  %117 = zext i8 %116 to i32
  %118 = icmp eq i32 %117, 7
  br i1 %118, label %119, label %152

119:                                              ; preds = %113
  br label %120

120:                                              ; preds = %119
  call void @llvm.lifetime.start.p0(i64 8, ptr %21) #17
  %121 = load ptr, ptr %20, align 8, !tbaa !13
  store ptr %121, ptr %21, align 8, !tbaa !13
  call void @llvm.lifetime.start.p0(i64 8, ptr %22) #17
  %122 = load ptr, ptr %21, align 8, !tbaa !13
  %123 = getelementptr inbounds nuw %struct._zval_struct, ptr %122, i32 0, i32 0
  %124 = load ptr, ptr %123, align 8, !tbaa !17
  store ptr %124, ptr %22, align 8, !tbaa !24
  %125 = load ptr, ptr %22, align 8, !tbaa !24
  %126 = getelementptr inbounds nuw %struct._zend_array, ptr %125, i32 0, i32 0
  %127 = call i32 @zend_gc_refcount(ptr noundef %126)
  %128 = icmp ugt i32 %127, 1
  %129 = xor i1 %128, true
  %130 = xor i1 %129, true
  %131 = zext i1 %130 to i32
  %132 = sext i32 %131 to i64
  %133 = call i64 @llvm.expect.i64(i64 %132, i64 0)
  %134 = icmp ne i64 %133, 0
  br i1 %134, label %135, label %149

135:                                              ; preds = %120
  br label %136

136:                                              ; preds = %135
  call void @llvm.lifetime.start.p0(i64 8, ptr %23) #17
  %137 = load ptr, ptr %22, align 8, !tbaa !24
  %138 = call ptr @zend_array_dup(ptr noundef %137)
  store ptr %138, ptr %23, align 8, !tbaa !24
  call void @llvm.lifetime.start.p0(i64 8, ptr %24) #17
  %139 = load ptr, ptr %21, align 8, !tbaa !13
  store ptr %139, ptr %24, align 8, !tbaa !13
  %140 = load ptr, ptr %23, align 8, !tbaa !24
  %141 = load ptr, ptr %24, align 8, !tbaa !13
  %142 = getelementptr inbounds nuw %struct._zval_struct, ptr %141, i32 0, i32 0
  store ptr %140, ptr %142, align 8, !tbaa !17
  %143 = load ptr, ptr %24, align 8, !tbaa !13
  %144 = getelementptr inbounds nuw %struct._zval_struct, ptr %143, i32 0, i32 1
  store i32 775, ptr %144, align 8, !tbaa !17
  call void @llvm.lifetime.end.p0(i64 8, ptr %24) #17
  call void @llvm.lifetime.end.p0(i64 8, ptr %23) #17
  br label %145

145:                                              ; preds = %136
  br label %146

146:                                              ; preds = %145
  %147 = load ptr, ptr %22, align 8, !tbaa !24
  %148 = getelementptr inbounds nuw %struct._zend_array, ptr %147, i32 0, i32 0
  call void @zend_gc_try_delref(ptr noundef %148)
  br label %149

149:                                              ; preds = %146, %120
  call void @llvm.lifetime.end.p0(i64 8, ptr %22) #17
  call void @llvm.lifetime.end.p0(i64 8, ptr %21) #17
  br label %150

150:                                              ; preds = %149
  br label %151

151:                                              ; preds = %150
  br label %152

152:                                              ; preds = %151, %113
  call void @llvm.lifetime.end.p0(i64 8, ptr %20) #17
  br label %153

153:                                              ; preds = %152
  br label %154

154:                                              ; preds = %153
  %155 = load ptr, ptr %14, align 8, !tbaa !13
  %156 = call zeroext i1 @zend_parse_arg_array(ptr noundef %155, ptr noundef %7, i1 noundef zeroext false, i1 noundef zeroext false)
  %157 = xor i1 %156, true
  %158 = xor i1 %157, true
  %159 = xor i1 %158, true
  %160 = zext i1 %159 to i32
  %161 = sext i32 %160 to i64
  %162 = call i64 @llvm.expect.i64(i64 %161, i64 0)
  %163 = icmp ne i64 %162, 0
  br i1 %163, label %164, label %165

164:                                              ; preds = %154
  store i32 6, ptr %15, align 4, !tbaa !4
  store i32 9, ptr %19, align 4, !tbaa !4
  br label %175

165:                                              ; preds = %154
  %166 = load i32, ptr %12, align 4, !tbaa !4
  %167 = load i32, ptr %10, align 4, !tbaa !4
  %168 = icmp eq i32 %166, %167
  br i1 %168, label %172, label %169

169:                                              ; preds = %165
  %170 = load i32, ptr %10, align 4, !tbaa !4
  %171 = icmp eq i32 %170, -1
  br label %172

172:                                              ; preds = %169, %165
  %173 = phi i1 [ true, %165 ], [ %171, %169 ]
  call void @llvm.assume(i1 %173)
  br label %174

174:                                              ; preds = %172
  br label %175

175:                                              ; preds = %174, %164, %91, %51
  %176 = load i32, ptr %19, align 4, !tbaa !4
  %177 = icmp ne i32 %176, 0
  %178 = xor i1 %177, true
  %179 = xor i1 %178, true
  %180 = zext i1 %179 to i32
  %181 = sext i32 %180 to i64
  %182 = call i64 @llvm.expect.i64(i64 %181, i64 0)
  %183 = icmp ne i64 %182, 0
  br i1 %183, label %184, label %190

184:                                              ; preds = %175
  %185 = load i32, ptr %19, align 4, !tbaa !4
  %186 = load i32, ptr %12, align 4, !tbaa !4
  %187 = load ptr, ptr %16, align 8, !tbaa !18
  %188 = load i32, ptr %15, align 4, !tbaa !4
  %189 = load ptr, ptr %14, align 8, !tbaa !13
  call void @zend_wrong_parameter_error(i32 noundef %185, i32 noundef %186, ptr noundef %187, i32 noundef %188, ptr noundef %189)
  store i32 1, ptr %25, align 4
  br label %191

190:                                              ; preds = %175
  store i32 0, ptr %25, align 4
  br label %191

191:                                              ; preds = %190, %184
  call void @llvm.lifetime.end.p0(i64 4, ptr %19) #17
  call void @llvm.lifetime.end.p0(i64 1, ptr %18) #17
  call void @llvm.lifetime.end.p0(i64 1, ptr %17) #17
  call void @llvm.lifetime.end.p0(i64 8, ptr %16) #17
  call void @llvm.lifetime.end.p0(i64 4, ptr %15) #17
  call void @llvm.lifetime.end.p0(i64 8, ptr %14) #17
  call void @llvm.lifetime.end.p0(i64 8, ptr %13) #17
  call void @llvm.lifetime.end.p0(i64 4, ptr %12) #17
  call void @llvm.lifetime.end.p0(i64 4, ptr %11) #17
  call void @llvm.lifetime.end.p0(i64 4, ptr %10) #17
  call void @llvm.lifetime.end.p0(i64 4, ptr %9) #17
  call void @llvm.lifetime.end.p0(i64 4, ptr %8) #17
  %192 = load i32, ptr %25, align 4
  switch i32 %192, label %215 [
    i32 0, label %193
  ]

193:                                              ; preds = %191
  br label %194

194:                                              ; preds = %193
  br label %195

195:                                              ; preds = %194
  %196 = load i32, ptr %6, align 4, !tbaa !4
  %197 = icmp ne i32 %196, 0
  br i1 %197, label %198, label %202

198:                                              ; preds = %195
  %199 = load ptr, ptr %7, align 8, !tbaa !13
  %200 = getelementptr inbounds nuw %struct._zval_struct, ptr %199, i32 0, i32 0
  %201 = load ptr, ptr %200, align 8, !tbaa !17
  call void @zend_array_sort(ptr noundef %201, ptr noundef @php_array_natural_case_compare, i1 noundef zeroext false)
  br label %206

202:                                              ; preds = %195
  %203 = load ptr, ptr %7, align 8, !tbaa !13
  %204 = getelementptr inbounds nuw %struct._zval_struct, ptr %203, i32 0, i32 0
  %205 = load ptr, ptr %204, align 8, !tbaa !17
  call void @zend_array_sort(ptr noundef %205, ptr noundef @php_array_natural_compare, i1 noundef zeroext false)
  br label %206

206:                                              ; preds = %202, %198
  br label %207

207:                                              ; preds = %206
  br label %208

208:                                              ; preds = %207
  %209 = load ptr, ptr %5, align 8, !tbaa !13
  %210 = getelementptr inbounds nuw %struct._zval_struct, ptr %209, i32 0, i32 1
  store i32 3, ptr %210, align 8, !tbaa !17
  br label %211

211:                                              ; preds = %208
  br label %212

212:                                              ; preds = %211
  store i32 1, ptr %25, align 4
  br label %215

213:                                              ; No predecessors!
  br label %214

214:                                              ; preds = %213
  store i32 0, ptr %25, align 4
  br label %215

215:                                              ; preds = %214, %212, %191
  call void @llvm.lifetime.end.p0(i64 8, ptr %7) #17
  %216 = load i32, ptr %25, align 4
  switch i32 %216, label %218 [
    i32 0, label %217
    i32 1, label %217
  ]

217:                                              ; preds = %215, %215
  ret void

218:                                              ; preds = %215
  unreachable
}