; Function Attrs: nounwind uwtable
define internal fastcc void @php_natsort(ptr noundef %0, ptr noundef writeonly captures(none) %1, i32 noundef range(i32 0, 2) %2) unnamed_addr #2 {
  %4 = getelementptr inbounds nuw i8, ptr %0, i64 44
  %5 = load i32, ptr %4, align 4, !tbaa !8
  %cond = icmp eq i32 %5, 1
  br i1 %cond, label %7, label %6, !prof !64

6:                                                ; preds = %3
  tail call void @zend_wrong_parameters_count_error(i32 noundef 1, i32 noundef 1) #21
  br label %zend_gc_try_delref.exit.thread56

7:                                                ; preds = %3
  %8 = getelementptr inbounds nuw i8, ptr %0, i64 80
  %9 = getelementptr inbounds nuw i8, ptr %0, i64 88
  %10 = load i8, ptr %9, align 8, !tbaa !8
  %11 = icmp eq i8 %10, 10
  br i1 %11, label %12, label %15, !prof !10

12:                                               ; preds = %7
  %13 = load ptr, ptr %8, align 8, !tbaa !8
  %14 = getelementptr inbounds nuw i8, ptr %13, i64 8
  br label %15

15:                                               ; preds = %7, %12
  %.1 = phi ptr [ %14, %12 ], [ %8, %7 ]
  %16 = getelementptr inbounds nuw i8, ptr %.1, i64 8
  %17 = load i8, ptr %16, align 8, !tbaa !8
  %18 = icmp eq i8 %17, 7
  br i1 %18, label %19, label %zend_gc_try_delref.exit.thread56

19:                                               ; preds = %15
  %20 = load ptr, ptr %.1, align 8, !tbaa !8
  %21 = load i32, ptr %20, align 4, !tbaa !11
  %22 = icmp ugt i32 %21, 1
  br i1 %22, label %23, label %.critedge, !prof !14

23:                                               ; preds = %19
  %24 = tail call ptr @zend_array_dup(ptr noundef nonnull %20) #21
  store ptr %24, ptr %.1, align 8, !tbaa !8
  store i32 775, ptr %16, align 8, !tbaa !8
  %25 = getelementptr inbounds nuw i8, ptr %20, i64 4
  %26 = load i32, ptr %25, align 4, !tbaa !8
  %27 = and i32 %26, 64
  %.not.i = icmp eq i32 %27, 0
  br i1 %.not.i, label %zend_gc_try_delref.exit, label %.critedge

zend_gc_try_delref.exit:                          ; preds = %23
  %28 = load i32, ptr %20, align 4, !tbaa !11
  %29 = add i32 %28, -1
  store i32 %29, ptr %20, align 4, !tbaa !11
  %.pr.pre = load i8, ptr %16, align 8, !tbaa !8
  %30 = icmp eq i8 %.pr.pre, 7
  br i1 %30, label %.critedge, label %zend_gc_try_delref.exit.thread56, !prof !15

zend_gc_try_delref.exit.thread56:                 ; preds = %15, %6, %zend_gc_try_delref.exit
  %.048.ph = phi i32 [ 9, %zend_gc_try_delref.exit ], [ 1, %6 ], [ 9, %15 ]
  %.047.ph = phi i32 [ 6, %zend_gc_try_delref.exit ], [ 0, %6 ], [ 6, %15 ]
  %.046.ph = phi ptr [ %.1, %zend_gc_try_delref.exit ], [ null, %6 ], [ %.1, %15 ]
  %.045.ph = phi i32 [ 1, %zend_gc_try_delref.exit ], [ 0, %6 ], [ 1, %15 ]
  tail call void @zend_wrong_parameter_error(i32 noundef %.048.ph, i32 noundef %.045.ph, ptr noundef null, i32 noundef %.047.ph, ptr noundef %.046.ph) #21
  br label %33

.critedge:                                        ; preds = %19, %23, %zend_gc_try_delref.exit
  %.not51 = icmp eq i32 %2, 0
  %31 = load ptr, ptr %.1, align 8, !tbaa !8
  %php_array_natural_compare.php_array_natural_case_compare = select i1 %.not51, ptr @php_array_natural_compare, ptr @php_array_natural_case_compare
  tail call void @zend_array_sort_ex(ptr noundef %31, ptr noundef nonnull @zend_sort, ptr noundef nonnull %php_array_natural_compare.php_array_natural_case_compare, i1 noundef zeroext false) #21
  %32 = getelementptr inbounds nuw i8, ptr %1, i64 8
  store i32 3, ptr %32, align 8, !tbaa !8
  br label %33

33:                                               ; preds = %zend_gc_try_delref.exit.thread56, %.critedge
  ret void
}